; ModuleID = 'source-C-CXX/46/2413.cpp'
source_filename = "source-C-CXX/46/2413.cpp"
target datalayout = "e-m:e-p270:32:32-p271:32:32-p272:64:64-i64:64-f80:128-n8:16:32:64-S128"
target triple = "x86_64-pc-linux-gnu"

%"class.std::ios_base::Init" = type { i8 }
%"class.std::basic_istream" = type { i32 (...)**, i64, %"class.std::basic_ios" }
%"class.std::basic_ios" = type { %"class.std::ios_base", %"class.std::basic_ostream"*, i8, i8, %"class.std::basic_streambuf"*, %"class.std::ctype"*, %"class.std::num_put"*, %"class.std::num_get"* }
%"class.std::ios_base" = type { i32 (...)**, i64, i64, i32, i32, i32, %"struct.std::ios_base::_Callback_list"*, %"struct.std::ios_base::_Words", [8 x %"struct.std::ios_base::_Words"], i32, %"struct.std::ios_base::_Words"*, %"class.std::locale" }
%"struct.std::ios_base::_Callback_list" = type { %"struct.std::ios_base::_Callback_list"*, void (i32, %"class.std::ios_base"*, i32)*, i32, i32 }
%"struct.std::ios_base::_Words" = type { i8*, i64 }
%"class.std::locale" = type { %"class.std::locale::_Impl"* }
%"class.std::locale::_Impl" = type { i32, %"class.std::locale::facet"**, i64, %"class.std::locale::facet"**, i8** }
%"class.std::locale::facet" = type <{ i32 (...)**, i32, [4 x i8] }>
%"class.std::basic_ostream" = type { i32 (...)**, %"class.std::basic_ios" }
%"class.std::basic_streambuf" = type { i32 (...)**, i8*, i8*, i8*, i8*, i8*, i8*, %"class.std::locale" }
%"class.std::ctype" = type <{ %"class.std::locale::facet.base", [4 x i8], %struct.__locale_struct*, i8, [7 x i8], i32*, i32*, i16*, i8, [256 x i8], [256 x i8], i8, [6 x i8] }>
%"class.std::locale::facet.base" = type <{ i32 (...)**, i32 }>
%struct.__locale_struct = type { [13 x %struct.__locale_data*], i16*, i32*, i32*, [13 x i8*] }
%struct.__locale_data = type opaque
%"class.std::num_put" = type { %"class.std::locale::facet.base", [4 x i8] }
%"class.std::num_get" = type { %"class.std::locale::facet.base", [4 x i8] }

@_ZStL8__ioinit = internal global %"class.std::ios_base::Init" zeroinitializer, align 1
@__dso_handle = external hidden global i8
@_ZSt3cin = external global %"class.std::basic_istream", align 8
@_ZSt4cout = external global %"class.std::basic_ostream", align 8
@.str = private unnamed_addr constant [2 x i8] c" \00", align 1
@llvm.global_ctors = appending global [1 x { i32, void ()*, i8* }] [{ i32, void ()*, i8* } { i32 65535, void ()* @_GLOBAL__sub_I_2413.cpp, i8* null }]

declare void @_ZNSt8ios_base4InitC1Ev(%"class.std::ios_base::Init"* nonnull align 1 dereferenceable(1)) unnamed_addr #0

; Function Attrs: nounwind
declare void @_ZNSt8ios_base4InitD1Ev(%"class.std::ios_base::Init"* nonnull align 1 dereferenceable(1)) unnamed_addr #1

; Function Attrs: nofree nounwind
declare i32 @__cxa_atexit(void (i8*)*, i8*, i8*) local_unnamed_addr #2

; Function Attrs: mustprogress norecurse sspstrong uwtable
define dso_local i32 @main() local_unnamed_addr #3 {
  %1 = alloca i32, align 4
  %2 = bitcast i32* %1 to i8*
  call void @llvm.lifetime.start.p0i8(i64 4, i8* nonnull %2) #7
  store i32 0, i32* %1, align 4, !tbaa !5
  %3 = call nonnull align 8 dereferenceable(16) %"class.std::basic_istream"* @_ZNSirsERi(%"class.std::basic_istream"* nonnull align 8 dereferenceable(16) @_ZSt3cin, i32* nonnull align 4 dereferenceable(4) %1)
  %4 = load i32, i32* %1, align 4, !tbaa !5
  %5 = zext i32 %4 to i64
  %6 = call i8* @llvm.stacksave()
  %7 = alloca i32, i64 %5, align 16
  %8 = load i32, i32* %1, align 4, !tbaa !5
  %9 = zext i32 %8 to i64
  %10 = alloca i32, i64 %9, align 16
  %11 = icmp sgt i32 %8, 0
  br i1 %11, label %119, label %164

12:                                               ; preds = %119
  %13 = icmp sgt i32 %124, 0
  br i1 %13, label %14, label %164

14:                                               ; preds = %12
  %15 = zext i32 %124 to i64
  %16 = icmp ult i32 %124, 8
  br i1 %16, label %99, label %17

17:                                               ; preds = %14
  %18 = add nsw i64 %15, -1
  %19 = add i32 %124, -1
  %20 = trunc i64 %18 to i32
  %21 = sub i32 %19, %20
  %22 = icmp sgt i32 %21, %19
  %23 = icmp ugt i64 %18, 4294967295
  %24 = or i1 %22, %23
  br i1 %24, label %99, label %25

25:                                               ; preds = %17
  %26 = and i64 %15, 4294967288
  %27 = trunc i64 %26 to i32
  %28 = add nsw i64 %26, -8
  %29 = lshr exact i64 %28, 3
  %30 = add nuw nsw i64 %29, 1
  %31 = and i64 %30, 1
  %32 = icmp eq i64 %28, 0
  br i1 %32, label %76, label %33

33:                                               ; preds = %25
  %34 = and i64 %30, 4611686018427387902
  br label %35

35:                                               ; preds = %35, %33
  %36 = phi i64 [ 0, %33 ], [ %73, %35 ]
  %37 = phi i64 [ %34, %33 ], [ %74, %35 ]
  %38 = trunc i64 %36 to i32
  %39 = xor i32 %38, -1
  %40 = add i32 %124, %39
  %41 = sext i32 %40 to i64
  %42 = getelementptr inbounds i32, i32* %7, i64 %41
  %43 = getelementptr inbounds i32, i32* %42, i64 -3
  %44 = bitcast i32* %43 to <4 x i32>*
  %45 = load <4 x i32>, <4 x i32>* %44, align 4, !tbaa !5
  %46 = shufflevector <4 x i32> %45, <4 x i32> poison, <4 x i32> <i32 3, i32 2, i32 1, i32 0>
  %47 = getelementptr inbounds i32, i32* %42, i64 -7
  %48 = bitcast i32* %47 to <4 x i32>*
  %49 = load <4 x i32>, <4 x i32>* %48, align 4, !tbaa !5
  %50 = shufflevector <4 x i32> %49, <4 x i32> poison, <4 x i32> <i32 3, i32 2, i32 1, i32 0>
  %51 = getelementptr inbounds i32, i32* %10, i64 %36
  %52 = bitcast i32* %51 to <4 x i32>*
  store <4 x i32> %46, <4 x i32>* %52, align 16, !tbaa !5
  %53 = getelementptr inbounds i32, i32* %51, i64 4
  %54 = bitcast i32* %53 to <4 x i32>*
  store <4 x i32> %50, <4 x i32>* %54, align 16, !tbaa !5
  %55 = or i64 %36, 8
  %56 = trunc i64 %55 to i32
  %57 = xor i32 %56, -1
  %58 = add i32 %124, %57
  %59 = sext i32 %58 to i64
  %60 = getelementptr inbounds i32, i32* %7, i64 %59
  %61 = getelementptr inbounds i32, i32* %60, i64 -3
  %62 = bitcast i32* %61 to <4 x i32>*
  %63 = load <4 x i32>, <4 x i32>* %62, align 4, !tbaa !5
  %64 = shufflevector <4 x i32> %63, <4 x i32> poison, <4 x i32> <i32 3, i32 2, i32 1, i32 0>
  %65 = getelementptr inbounds i32, i32* %60, i64 -7
  %66 = bitcast i32* %65 to <4 x i32>*
  %67 = load <4 x i32>, <4 x i32>* %66, align 4, !tbaa !5
  %68 = shufflevector <4 x i32> %67, <4 x i32> poison, <4 x i32> <i32 3, i32 2, i32 1, i32 0>
  %69 = getelementptr inbounds i32, i32* %10, i64 %55
  %70 = bitcast i32* %69 to <4 x i32>*
  store <4 x i32> %64, <4 x i32>* %70, align 16, !tbaa !5
  %71 = getelementptr inbounds i32, i32* %69, i64 4
  %72 = bitcast i32* %71 to <4 x i32>*
  store <4 x i32> %68, <4 x i32>* %72, align 16, !tbaa !5
  %73 = add nuw i64 %36, 16
  %74 = add i64 %37, -2
  %75 = icmp eq i64 %74, 0
  br i1 %75, label %76, label %35, !llvm.loop !9

76:                                               ; preds = %35, %25
  %77 = phi i64 [ 0, %25 ], [ %73, %35 ]
  %78 = icmp eq i64 %31, 0
  br i1 %78, label %97, label %79

79:                                               ; preds = %76
  %80 = trunc i64 %77 to i32
  %81 = xor i32 %80, -1
  %82 = add i32 %124, %81
  %83 = sext i32 %82 to i64
  %84 = getelementptr inbounds i32, i32* %7, i64 %83
  %85 = getelementptr inbounds i32, i32* %84, i64 -3
  %86 = bitcast i32* %85 to <4 x i32>*
  %87 = load <4 x i32>, <4 x i32>* %86, align 4, !tbaa !5
  %88 = shufflevector <4 x i32> %87, <4 x i32> poison, <4 x i32> <i32 3, i32 2, i32 1, i32 0>
  %89 = getelementptr inbounds i32, i32* %84, i64 -7
  %90 = bitcast i32* %89 to <4 x i32>*
  %91 = load <4 x i32>, <4 x i32>* %90, align 4, !tbaa !5
  %92 = shufflevector <4 x i32> %91, <4 x i32> poison, <4 x i32> <i32 3, i32 2, i32 1, i32 0>
  %93 = getelementptr inbounds i32, i32* %10, i64 %77
  %94 = bitcast i32* %93 to <4 x i32>*
  store <4 x i32> %88, <4 x i32>* %94, align 16, !tbaa !5
  %95 = getelementptr inbounds i32, i32* %93, i64 4
  %96 = bitcast i32* %95 to <4 x i32>*
  store <4 x i32> %92, <4 x i32>* %96, align 16, !tbaa !5
  br label %97

97:                                               ; preds = %76, %79
  %98 = icmp eq i64 %26, %15
  br i1 %98, label %127, label %99

99:                                               ; preds = %17, %14, %97
  %100 = phi i64 [ 0, %17 ], [ 0, %14 ], [ %26, %97 ]
  %101 = phi i32 [ 0, %17 ], [ 0, %14 ], [ %27, %97 ]
  %102 = xor i64 %100, -1
  %103 = and i64 %15, 1
  %104 = icmp eq i64 %103, 0
  br i1 %104, label %114, label %105

105:                                              ; preds = %99
  %106 = xor i32 %101, -1
  %107 = add i32 %124, %106
  %108 = sext i32 %107 to i64
  %109 = getelementptr inbounds i32, i32* %7, i64 %108
  %110 = load i32, i32* %109, align 4, !tbaa !5
  %111 = getelementptr inbounds i32, i32* %10, i64 %100
  store i32 %110, i32* %111, align 16, !tbaa !5
  %112 = or i64 %100, 1
  %113 = add nuw nsw i32 %101, 1
  br label %114

114:                                              ; preds = %105, %99
  %115 = phi i64 [ %100, %99 ], [ %112, %105 ]
  %116 = phi i32 [ %101, %99 ], [ %113, %105 ]
  %117 = sub nsw i64 0, %15
  %118 = icmp eq i64 %102, %117
  br i1 %118, label %127, label %128

119:                                              ; preds = %0, %119
  %120 = phi i64 [ %123, %119 ], [ 0, %0 ]
  %121 = getelementptr inbounds i32, i32* %7, i64 %120
  %122 = call nonnull align 8 dereferenceable(16) %"class.std::basic_istream"* @_ZNSirsERi(%"class.std::basic_istream"* nonnull align 8 dereferenceable(16) @_ZSt3cin, i32* nonnull align 4 dereferenceable(4) %121)
  %123 = add nuw nsw i64 %120, 1
  %124 = load i32, i32* %1, align 4, !tbaa !5
  %125 = sext i32 %124 to i64
  %126 = icmp slt i64 %123, %125
  br i1 %126, label %119, label %12, !llvm.loop !12

127:                                              ; preds = %114, %128, %97
  br i1 %13, label %147, label %164

128:                                              ; preds = %114, %128
  %129 = phi i64 [ %144, %128 ], [ %115, %114 ]
  %130 = phi i32 [ %145, %128 ], [ %116, %114 ]
  %131 = xor i32 %130, -1
  %132 = add i32 %124, %131
  %133 = sext i32 %132 to i64
  %134 = getelementptr inbounds i32, i32* %7, i64 %133
  %135 = load i32, i32* %134, align 4, !tbaa !5
  %136 = getelementptr inbounds i32, i32* %10, i64 %129
  store i32 %135, i32* %136, align 4, !tbaa !5
  %137 = add nuw nsw i64 %129, 1
  %138 = sub i32 -2, %130
  %139 = add i32 %124, %138
  %140 = sext i32 %139 to i64
  %141 = getelementptr inbounds i32, i32* %7, i64 %140
  %142 = load i32, i32* %141, align 4, !tbaa !5
  %143 = getelementptr inbounds i32, i32* %10, i64 %137
  store i32 %142, i32* %143, align 4, !tbaa !5
  %144 = add nuw nsw i64 %129, 2
  %145 = add nuw nsw i32 %130, 2
  %146 = icmp eq i64 %144, %15
  br i1 %146, label %127, label %128, !llvm.loop !13

147:                                              ; preds = %127, %159
  %148 = phi i64 [ %160, %159 ], [ 0, %127 ]
  %149 = phi i32 [ %161, %159 ], [ %124, %127 ]
  %150 = getelementptr inbounds i32, i32* %10, i64 %148
  %151 = load i32, i32* %150, align 4, !tbaa !5
  %152 = getelementptr inbounds i32, i32* %7, i64 %148
  store i32 %151, i32* %152, align 4, !tbaa !5
  %153 = add nsw i32 %149, -1
  %154 = sext i32 %153 to i64
  %155 = icmp slt i64 %148, %154
  %156 = call nonnull align 8 dereferenceable(8) %"class.std::basic_ostream"* @_ZNSolsEi(%"class.std::basic_ostream"* nonnull align 8 dereferenceable(8) @_ZSt4cout, i32 %151)
  br i1 %155, label %157, label %159

157:                                              ; preds = %147
  %158 = call nonnull align 8 dereferenceable(8) %"class.std::basic_ostream"* @_ZSt16__ostream_insertIcSt11char_traitsIcEERSt13basic_ostreamIT_T0_ES6_PKS3_l(%"class.std::basic_ostream"* nonnull align 8 dereferenceable(8) %156, i8* nonnull getelementptr inbounds ([2 x i8], [2 x i8]* @.str, i64 0, i64 0), i64 1)
  br label %159

159:                                              ; preds = %147, %157
  %160 = add nuw nsw i64 %148, 1
  %161 = load i32, i32* %1, align 4, !tbaa !5
  %162 = sext i32 %161 to i64
  %163 = icmp slt i64 %160, %162
  br i1 %163, label %147, label %164, !llvm.loop !14

164:                                              ; preds = %159, %12, %0, %127
  call void @llvm.stackrestore(i8* %6)
  call void @llvm.lifetime.end.p0i8(i64 4, i8* nonnull %2) #7
  ret i32 0
}

; Function Attrs: argmemonly mustprogress nofree nosync nounwind willreturn
declare void @llvm.lifetime.start.p0i8(i64 immarg, i8* nocapture) #4

declare nonnull align 8 dereferenceable(16) %"class.std::basic_istream"* @_ZNSirsERi(%"class.std::basic_istream"* nonnull align 8 dereferenceable(16), i32* nonnull align 4 dereferenceable(4)) local_unnamed_addr #0

; Function Attrs: mustprogress nofree nosync nounwind willreturn
declare i8* @llvm.stacksave() #5

declare nonnull align 8 dereferenceable(8) %"class.std::basic_ostream"* @_ZNSolsEi(%"class.std::basic_ostream"* nonnull align 8 dereferenceable(8), i32) local_unnamed_addr #0

; Function Attrs: argmemonly mustprogress nofree nosync nounwind willreturn
declare void @llvm.lifetime.end.p0i8(i64 immarg, i8* nocapture) #4

; Function Attrs: mustprogress nofree nosync nounwind willreturn
declare void @llvm.stackrestore(i8*) #5

declare nonnull align 8 dereferenceable(8) %"class.std::basic_ostream"* @_ZSt16__ostream_insertIcSt11char_traitsIcEERSt13basic_ostreamIT_T0_ES6_PKS3_l(%"class.std::basic_ostream"* nonnull align 8 dereferenceable(8), i8*, i64) local_unnamed_addr #0

; Function Attrs: sspstrong uwtable
define internal void @_GLOBAL__sub_I_2413.cpp() #6 section ".text.startup" {
  tail call void @_ZNSt8ios_base4InitC1Ev(%"class.std::ios_base::Init"* nonnull align 1 dereferenceable(1) @_ZStL8__ioinit)
  %1 = tail call i32 @__cxa_atexit(void (i8*)* bitcast (void (%"class.std::ios_base::Init"*)* @_ZNSt8ios_base4InitD1Ev to void (i8*)*), i8* getelementptr inbounds (%"class.std::ios_base::Init", %"class.std::ios_base::Init"* @_ZStL8__ioinit, i64 0, i32 0), i8* nonnull @__dso_handle) #7
  ret void
}


!llvm.module.flags = !{!0, !1, !2, !3}
!llvm.ident = !{!4}

!0 = !{i32 1, !"wchar_size", i32 4}
!1 = !{i32 7, !"PIC Level", i32 2}
!2 = !{i32 7, !"PIE Level", i32 2}
!3 = !{i32 7, !"uwtable", i32 1}
!4 = !{!"clang version 13.0.0"}
!5 = !{!6, !6, i64 0}
!6 = !{!"int", !7, i64 0}
!7 = !{!"omnipotent char", !8, i64 0}
!8 = !{!"Simple C++ TBAA"}
!9 = distinct !{!9, !10, !11}
!10 = !{!"llvm.loop.mustprogress"}
!11 = !{!"llvm.loop.isvectorized", i32 1}
!12 = distinct !{!12, !10}
!13 = distinct !{!13, !10, !11}
!14 = distinct !{!14, !10}
